; Function Attrs: mustprogress nofree norecurse nosync nounwind sspstrong willreturn memory(argmem: write) uwtable
define internal range(i32 -6, 1) i32 @get_ctype_code_range(i32 noundef %0, ptr noundef writeonly captures(none) %1, ptr noundef writeonly captures(none) %2, ptr readnone captures(none) %3) #7 {
  %5 = icmp ult i32 %0, 15
  br i1 %5, label %13, label %6

6:                                                ; preds = %4
  store i32 128, ptr %1, align 4, !tbaa !9
  %7 = add i32 %0, -15
  %8 = icmp ugt i32 %7, 5
  br i1 %8, label %13, label %9

9:                                                ; preds = %6
  %10 = zext nneg i32 %7 to i64
  %11 = getelementptr inbounds nuw [6 x ptr], ptr @PropertyList, i64 0, i64 %10
  %12 = load ptr, ptr %11, align 8, !tbaa !24
  store ptr %12, ptr %2, align 8, !tbaa !24
  br label %13

13:                                               ; preds = %6, %4, %9
  %.0 = phi i32 [ 0, %9 ], [ -2, %4 ], [ -6, %6 ]
  ret i32 %.0
}